target datalayout = "e-m:e-p270:32:32-p271:32:32-p272:64:64-i64:64-i128:128-f80:128-n8:16:32:64-S128"
target triple = "x86_64-unknown-linux-gnu"

%struct.CPUWatchpoint = type { i64, i64, i64, %struct.MemTxAttrs, i32, %union.anon }
%struct.MemTxAttrs = type { i32 }
%union.anon = type { %struct.QTailQLink }
%struct.QTailQLink = type { ptr, ptr }
%struct.CPUState = type { %struct.DeviceState, ptr, i32, i32, ptr, i32, i8, i8, ptr, i8, i8, i8, i8, i8, i8, i8, i8, i32, i32, i32, i32, i64, i64, i64, [1 x %struct.__jmp_buf_tag], %struct.QemuMutex, %struct.anon, ptr, i32, ptr, ptr, ptr, ptr, i32, i32, %union.anon.0, %union.anon.1, %union.anon.2, ptr, ptr, i64, i32, ptr, ptr, ptr, i32, i64, i32, %struct.QemuLockCnt, [1 x i64], ptr, i32, i32, i32, i32, i32, ptr, i8, i8, i64, i8, i8, ptr, [8 x i8], [0 x i8], %struct.CPUNegativeOffsetState }
%struct.DeviceState = type { %struct.Object, ptr, ptr, i8, i8, i64, ptr, i32, i8, ptr, %struct.NamedGPIOListHead, %struct.NamedClockListHead, %struct.BusStateHead, i32, i32, i32, %struct.ResettableState, ptr, %struct.MemReentrancyGuard }
%struct.Object = type { ptr, ptr, ptr, i32, ptr }
%struct.NamedGPIOListHead = type { ptr }
%struct.NamedClockListHead = type { ptr }
%struct.BusStateHead = type { ptr }
%struct.ResettableState = type { i32, i8, i8 }
%struct.MemReentrancyGuard = type { i8 }
%struct.__jmp_buf_tag = type { [8 x i64], i32, %struct.__sigset_t }
%struct.__sigset_t = type { [16 x i64] }
%struct.QemuMutex = type { %union.pthread_mutex_t, i8 }
%union.pthread_mutex_t = type { %struct.__pthread_mutex_s }
%struct.__pthread_mutex_s = type { i32, i32, i32, i32, i32, i16, i16, %struct.__pthread_internal_list }
%struct.__pthread_internal_list = type { ptr, ptr }
%struct.anon = type { ptr, ptr }
%union.anon.0 = type { %struct.QTailQLink }
%union.anon.1 = type { %struct.QTailQLink }
%union.anon.2 = type { %struct.QTailQLink }
%struct.QemuLockCnt = type { i32 }
%struct.CPUNegativeOffsetState = type { %struct.CPUTLB, %union.IcountDecr, i8, [11 x i8] }
%struct.CPUTLB = type { %struct.CPUTLBCommon, [16 x %struct.CPUTLBDesc], [16 x %struct.CPUTLBDescFast] }
%struct.CPUTLBCommon = type { %struct.QemuSpin, i16, i64, i64, i64 }
%struct.QemuSpin = type { i32 }
%struct.CPUTLBDesc = type { i64, i64, i64, i64, i64, i64, [8 x %union.CPUTLBEntry], [8 x %struct.CPUTLBEntryFull], ptr }
%union.CPUTLBEntry = type { %struct.anon.3 }
%struct.anon.3 = type { i64, i64, i64, i64 }
%struct.CPUTLBEntryFull = type { i64, i64, %struct.MemTxAttrs, i8, i8, [3 x i8], %union.anon.4 }
%union.anon.4 = type { %struct.anon.5 }
%struct.anon.5 = type { i8, i8, i8 }
%struct.CPUTLBDescFast = type { i64, ptr }
%union.IcountDecr = type { i32 }
%struct.CPUClass = type { %struct.DeviceClass, ptr, ptr, ptr, ptr, ptr, ptr, ptr, ptr, ptr, ptr, ptr, ptr, ptr, ptr, ptr, ptr, ptr, ptr, ptr, ptr, ptr, i32, i32, i8 }
%struct.DeviceClass = type { %struct.ObjectClass, [1 x i64], ptr, ptr, ptr, i8, i8, ptr, ptr, ptr, ptr, ptr }
%struct.ObjectClass = type { ptr, ptr, [4 x ptr], [4 x ptr], ptr, ptr }
%struct.TCGCPUOps = type { ptr, ptr, ptr, ptr, ptr, ptr, ptr, ptr, ptr, ptr, ptr, ptr, ptr, ptr, ptr }

@tcg_allowed = external global i8, align 1
@.str.1 = private unnamed_addr constant [14 x i8] c"tcg_enabled()\00", align 1
@.str.2 = private unnamed_addr constant [28 x i8] c"../qemu/system/watchpoint.c\00", align 1
@__PRETTY_FUNCTION__.cpu_check_watchpoint = private unnamed_addr constant [80 x i8] c"void cpu_check_watchpoint(CPUState *, vaddr, vaddr, MemTxAttrs, int, uintptr_t)\00", align 1
@.str.3 = private unnamed_addr constant [30 x i8] c"(flags & ~BP_MEM_ACCESS) == 0\00", align 1
@.str.4 = private unnamed_addr constant [4 x i8] c"cpu\00", align 1
@.str.5 = private unnamed_addr constant [100 x i8] c"/home/dtcxzyw/WorkSpace/Projects/compilers/llvm-opt-benchmark/bench/qemu/qemu/include/hw/core/cpu.h\00", align 1
@__func__.CPU_GET_CLASS = private unnamed_addr constant [14 x i8] c"CPU_GET_CLASS\00", align 1

; Function Attrs: nounwind sspstrong uwtable
define internal void @mmap_unlock() #0 {
entry:
  ret void
}

; Function Attrs: nounwind sspstrong uwtable
define internal void @mmap_lock() #0 {
entry:
  ret void
}

; Function Attrs: nounwind sspstrong uwtable
define internal zeroext i1 @watchpoint_address_matches(ptr noundef %wp, i64 noundef %addr, i64 noundef %len) #0 {
entry:
  %wp.addr = alloca ptr, align 8
  %addr.addr = alloca i64, align 8
  %len.addr = alloca i64, align 8
  %wpend = alloca i64, align 8
  %addrend = alloca i64, align 8
  store ptr %wp, ptr %wp.addr, align 8
  store i64 %addr, ptr %addr.addr, align 8
  store i64 %len, ptr %len.addr, align 8
  %0 = load ptr, ptr %wp.addr, align 8
  %vaddr = getelementptr inbounds %struct.CPUWatchpoint, ptr %0, i32 0, i32 0
  %1 = load i64, ptr %vaddr, align 8
  %2 = load ptr, ptr %wp.addr, align 8
  %len1 = getelementptr inbounds %struct.CPUWatchpoint, ptr %2, i32 0, i32 1
  %3 = load i64, ptr %len1, align 8
  %add = add i64 %1, %3
  %sub = sub i64 %add, 1
  store i64 %sub, ptr %wpend, align 8
  %4 = load i64, ptr %addr.addr, align 8
  %5 = load i64, ptr %len.addr, align 8
  %add2 = add i64 %4, %5
  %sub3 = sub i64 %add2, 1
  store i64 %sub3, ptr %addrend, align 8
  %6 = load i64, ptr %addr.addr, align 8
  %7 = load i64, ptr %wpend, align 8
  %cmp = icmp ugt i64 %6, %7
  br i1 %cmp, label %lor.end, label %lor.rhs

lor.rhs:                                          ; preds = %entry
  %8 = load ptr, ptr %wp.addr, align 8
  %vaddr4 = getelementptr inbounds %struct.CPUWatchpoint, ptr %8, i32 0, i32 0
  %9 = load i64, ptr %vaddr4, align 8
  %10 = load i64, ptr %addrend, align 8
  %cmp5 = icmp ugt i64 %9, %10
  br label %lor.end

lor.end:                                          ; preds = %lor.rhs, %entry
  %11 = phi i1 [ true, %entry ], [ %cmp5, %lor.rhs ]
  %lnot = xor i1 %11, true
  ret i1 %lnot
}

; Function Attrs: nounwind sspstrong uwtable
define internal ptr @CPU_GET_CLASS(ptr noundef %obj) #0 {
entry:
  %obj.addr = alloca ptr, align 8
  store ptr %obj, ptr %obj.addr, align 8
  %0 = load ptr, ptr %obj.addr, align 8
  %call = call ptr @object_get_class(ptr noundef %0)
  %call1 = call ptr @object_class_dynamic_cast_assert(ptr noundef %call, ptr noundef @.str.4, ptr noundef @.str.5, i32 noundef 64, ptr noundef @__func__.CPU_GET_CLASS)
  ret ptr %call1
}

; Function Attrs: nounwind sspstrong uwtable
define dso_local void @cpu_check_watchpoint(ptr noundef %cpu, i64 noundef %addr, i64 noundef %len, i32 %attrs.coerce, i32 noundef %flags, i64 noundef %ra) #0 {
entry:
  %attrs = alloca %struct.MemTxAttrs, align 4
  %cpu.addr = alloca ptr, align 8
  %addr.addr = alloca i64, align 8
  %len.addr = alloca i64, align 8
  %flags.addr = alloca i32, align 4
  %ra.addr = alloca i64, align 8
  %cc = alloca ptr, align 8
  %wp = alloca ptr, align 8
  %hit_flags = alloca i32, align 4
  %_a1 = alloca i64, align 8
  %_b2 = alloca i64, align 8
  %tmp = alloca i64, align 8
  %coerce.dive = getelementptr inbounds %struct.MemTxAttrs, ptr %attrs, i32 0, i32 0
  store i32 %attrs.coerce, ptr %coerce.dive, align 4
  store ptr %cpu, ptr %cpu.addr, align 8
  store i64 %addr, ptr %addr.addr, align 8
  store i64 %len, ptr %len.addr, align 8
  store i32 %flags, ptr %flags.addr, align 4
  store i64 %ra, ptr %ra.addr, align 8
  %0 = load ptr, ptr %cpu.addr, align 8
  %call = call ptr @CPU_GET_CLASS(ptr noundef %0)
  store ptr %call, ptr %cc, align 8
  %1 = load i8, ptr @tcg_allowed, align 1
  %tobool = trunc i8 %1 to i1
  br i1 %tobool, label %if.then, label %if.else

if.then:                                          ; preds = %entry
  br label %if.end

if.else:                                          ; preds = %entry
  call void @__assert_fail(ptr noundef @.str.1, ptr noundef @.str.2, i32 noundef 151, ptr noundef @__PRETTY_FUNCTION__.cpu_check_watchpoint) #7
  unreachable

if.end:                                           ; preds = %if.then
  %2 = load ptr, ptr %cpu.addr, align 8
  %watchpoint_hit = getelementptr inbounds %struct.CPUState, ptr %2, i32 0, i32 38
  %3 = load ptr, ptr %watchpoint_hit, align 8
  %tobool1 = icmp ne ptr %3, null
  br i1 %tobool1, label %if.then2, label %if.end3

if.then2:                                         ; preds = %if.end
  call void @qemu_mutex_lock_iothread_impl(ptr noundef @.str.2, i32 noundef 158)
  %4 = load ptr, ptr %cpu.addr, align 8
  call void @cpu_interrupt(ptr noundef %4, i32 noundef 128)
  call void @qemu_mutex_unlock_iothread()
  br label %for.end

if.end3:                                          ; preds = %if.end
  %5 = load ptr, ptr %cc, align 8
  %tcg_ops = getelementptr inbounds %struct.CPUClass, ptr %5, i32 0, i32 20
  %6 = load ptr, ptr %tcg_ops, align 8
  %adjust_watchpoint_address = getelementptr inbounds %struct.TCGCPUOps, ptr %6, i32 0, i32 11
  %7 = load ptr, ptr %adjust_watchpoint_address, align 8
  %tobool4 = icmp ne ptr %7, null
  br i1 %tobool4, label %if.then5, label %if.end9

if.then5:                                         ; preds = %if.end3
  %8 = load ptr, ptr %cc, align 8
  %tcg_ops6 = getelementptr inbounds %struct.CPUClass, ptr %8, i32 0, i32 20
  %9 = load ptr, ptr %tcg_ops6, align 8
  %adjust_watchpoint_address7 = getelementptr inbounds %struct.TCGCPUOps, ptr %9, i32 0, i32 11
  %10 = load ptr, ptr %adjust_watchpoint_address7, align 8
  %11 = load ptr, ptr %cpu.addr, align 8
  %12 = load i64, ptr %addr.addr, align 8
  %13 = load i64, ptr %len.addr, align 8
  %conv = trunc i64 %13 to i32
  %call8 = call i64 %10(ptr noundef %11, i64 noundef %12, i32 noundef %conv)
  store i64 %call8, ptr %addr.addr, align 8
  br label %if.end9

if.end9:                                          ; preds = %if.then5, %if.end3
  %14 = load i32, ptr %flags.addr, align 4
  %and = and i32 %14, -4
  %cmp = icmp eq i32 %and, 0
  br i1 %cmp, label %if.then11, label %if.else12

if.then11:                                        ; preds = %if.end9
  br label %if.end13

if.else12:                                        ; preds = %if.end9
  call void @__assert_fail(ptr noundef @.str.3, ptr noundef @.str.2, i32 noundef 169, ptr noundef @__PRETTY_FUNCTION__.cpu_check_watchpoint) #7
  unreachable

if.end13:                                         ; preds = %if.then11
  %15 = load ptr, ptr %cpu.addr, align 8
  %watchpoints = getelementptr inbounds %struct.CPUState, ptr %15, i32 0, i32 37
  %16 = load ptr, ptr %watchpoints, align 8
  store ptr %16, ptr %wp, align 8
  br label %for.cond

for.cond:                                         ; preds = %for.inc, %if.end13
  %17 = load ptr, ptr %wp, align 8
  %tobool14 = icmp ne ptr %17, null
  br i1 %tobool14, label %for.body, label %for.end

for.body:                                         ; preds = %for.cond
  %18 = load ptr, ptr %wp, align 8
  %flags15 = getelementptr inbounds %struct.CPUWatchpoint, ptr %18, i32 0, i32 4
  %19 = load i32, ptr %flags15, align 4
  %20 = load i32, ptr %flags.addr, align 4
  %and16 = and i32 %19, %20
  store i32 %and16, ptr %hit_flags, align 4
  %21 = load i32, ptr %hit_flags, align 4
  %tobool17 = icmp ne i32 %21, 0
  br i1 %tobool17, label %land.lhs.true, label %if.else55

land.lhs.true:                                    ; preds = %for.body
  %22 = load ptr, ptr %wp, align 8
  %23 = load i64, ptr %addr.addr, align 8
  %24 = load i64, ptr %len.addr, align 8
  %call18 = call zeroext i1 @watchpoint_address_matches(ptr noundef %22, i64 noundef %23, i64 noundef %24)
  br i1 %call18, label %if.then20, label %if.else55

if.then20:                                        ; preds = %land.lhs.true
  %call21 = call zeroext i1 @replay_running_debug()
  br i1 %call21, label %if.then22, label %if.end27

if.then22:                                        ; preds = %if.then20
  %25 = load ptr, ptr %cpu.addr, align 8
  %neg = getelementptr inbounds %struct.CPUState, ptr %25, i32 0, i32 65
  %can_do_io = getelementptr inbounds %struct.CPUNegativeOffsetState, ptr %neg, i32 0, i32 2
  %26 = load i8, ptr %can_do_io, align 4
  %tobool23 = trunc i8 %26 to i1
  br i1 %tobool23, label %if.end26, label %if.then24

if.then24:                                        ; preds = %if.then22
  %27 = load ptr, ptr %cpu.addr, align 8
  %call25 = call i32 @curr_cflags(ptr noundef %27)
  %or = or i32 65537, %call25
  %28 = load ptr, ptr %cpu.addr, align 8
  %cflags_next_tb = getelementptr inbounds %struct.CPUState, ptr %28, i32 0, i32 18
  store i32 %or, ptr %cflags_next_tb, align 4
  %29 = load ptr, ptr %cpu.addr, align 8
  %30 = load i64, ptr %ra.addr, align 8
  call void @cpu_loop_exit_restore(ptr noundef %29, i64 noundef %30) #8
  unreachable

if.end26:                                         ; preds = %if.then22
  call void @replay_breakpoint()
  br label %for.end

if.end27:                                         ; preds = %if.then20
  %31 = load i32, ptr %hit_flags, align 4
  %shl = shl i32 %31, 6
  %32 = load ptr, ptr %wp, align 8
  %flags28 = getelementptr inbounds %struct.CPUWatchpoint, ptr %32, i32 0, i32 4
  %33 = load i32, ptr %flags28, align 4
  %or29 = or i32 %33, %shl
  store i32 %or29, ptr %flags28, align 4
  %34 = load i64, ptr %addr.addr, align 8
  store i64 %34, ptr %_a1, align 8
  %35 = load ptr, ptr %wp, align 8
  %vaddr = getelementptr inbounds %struct.CPUWatchpoint, ptr %35, i32 0, i32 0
  %36 = load i64, ptr %vaddr, align 8
  store i64 %36, ptr %_b2, align 8
  %37 = load i64, ptr %_a1, align 8
  %38 = load i64, ptr %_b2, align 8
  %cmp30 = icmp ugt i64 %37, %38
  br i1 %cmp30, label %cond.true, label %cond.false

cond.true:                                        ; preds = %if.end27
  %39 = load i64, ptr %_a1, align 8
  br label %cond.end

cond.false:                                       ; preds = %if.end27
  %40 = load i64, ptr %_b2, align 8
  br label %cond.end

cond.end:                                         ; preds = %cond.false, %cond.true
  %cond = phi i64 [ %39, %cond.true ], [ %40, %cond.false ]
  store i64 %cond, ptr %tmp, align 8
  %41 = load i64, ptr %tmp, align 8
  %42 = load ptr, ptr %wp, align 8
  %hitaddr = getelementptr inbounds %struct.CPUWatchpoint, ptr %42, i32 0, i32 2
  store i64 %41, ptr %hitaddr, align 8
  %43 = load ptr, ptr %wp, align 8
  %hitattrs = getelementptr inbounds %struct.CPUWatchpoint, ptr %43, i32 0, i32 3
  call void @llvm.memcpy.p0.p0.i64(ptr align 8 %hitattrs, ptr align 4 %attrs, i64 4, i1 false)
  %44 = load ptr, ptr %wp, align 8
  %flags32 = getelementptr inbounds %struct.CPUWatchpoint, ptr %44, i32 0, i32 4
  %45 = load i32, ptr %flags32, align 4
  %and33 = and i32 %45, 32
  %tobool34 = icmp ne i32 %and33, 0
  br i1 %tobool34, label %land.lhs.true35, label %if.end45

land.lhs.true35:                                  ; preds = %cond.end
  %46 = load ptr, ptr %cc, align 8
  %tcg_ops36 = getelementptr inbounds %struct.CPUClass, ptr %46, i32 0, i32 20
  %47 = load ptr, ptr %tcg_ops36, align 8
  %debug_check_watchpoint = getelementptr inbounds %struct.TCGCPUOps, ptr %47, i32 0, i32 12
  %48 = load ptr, ptr %debug_check_watchpoint, align 8
  %tobool37 = icmp ne ptr %48, null
  br i1 %tobool37, label %land.lhs.true38, label %if.end45

land.lhs.true38:                                  ; preds = %land.lhs.true35
  %49 = load ptr, ptr %cc, align 8
  %tcg_ops39 = getelementptr inbounds %struct.CPUClass, ptr %49, i32 0, i32 20
  %50 = load ptr, ptr %tcg_ops39, align 8
  %debug_check_watchpoint40 = getelementptr inbounds %struct.TCGCPUOps, ptr %50, i32 0, i32 12
  %51 = load ptr, ptr %debug_check_watchpoint40, align 8
  %52 = load ptr, ptr %cpu.addr, align 8
  %53 = load ptr, ptr %wp, align 8
  %call41 = call zeroext i1 %51(ptr noundef %52, ptr noundef %53)
  br i1 %call41, label %if.end45, label %if.then42

if.then42:                                        ; preds = %land.lhs.true38
  %54 = load ptr, ptr %wp, align 8
  %flags43 = getelementptr inbounds %struct.CPUWatchpoint, ptr %54, i32 0, i32 4
  %55 = load i32, ptr %flags43, align 4
  %and44 = and i32 %55, -193
  store i32 %and44, ptr %flags43, align 4
  br label %for.inc

if.end45:                                         ; preds = %land.lhs.true38, %land.lhs.true35, %cond.end
  %56 = load ptr, ptr %wp, align 8
  %57 = load ptr, ptr %cpu.addr, align 8
  %watchpoint_hit46 = getelementptr inbounds %struct.CPUState, ptr %57, i32 0, i32 38
  store ptr %56, ptr %watchpoint_hit46, align 8
  call void @mmap_lock()
  %58 = load ptr, ptr %cpu.addr, align 8
  %59 = load i64, ptr %ra.addr, align 8
  call void @tb_check_watchpoint(ptr noundef %58, i64 noundef %59)
  %60 = load ptr, ptr %wp, align 8
  %flags47 = getelementptr inbounds %struct.CPUWatchpoint, ptr %60, i32 0, i32 4
  %61 = load i32, ptr %flags47, align 4
  %and48 = and i32 %61, 4
  %tobool49 = icmp ne i32 %and48, 0
  br i1 %tobool49, label %if.then50, label %if.else51

if.then50:                                        ; preds = %if.end45
  %62 = load ptr, ptr %cpu.addr, align 8
  %exception_index = getelementptr inbounds %struct.CPUState, ptr %62, i32 0, i32 55
  store i32 65538, ptr %exception_index, align 8
  call void @mmap_unlock()
  %63 = load ptr, ptr %cpu.addr, align 8
  call void @cpu_loop_exit(ptr noundef %63) #8
  unreachable

if.else51:                                        ; preds = %if.end45
  %64 = load ptr, ptr %cpu.addr, align 8
  %call52 = call i32 @curr_cflags(ptr noundef %64)
  %or53 = or i32 65537, %call52
  %65 = load ptr, ptr %cpu.addr, align 8
  %cflags_next_tb54 = getelementptr inbounds %struct.CPUState, ptr %65, i32 0, i32 18
  store i32 %or53, ptr %cflags_next_tb54, align 4
  call void @mmap_unlock()
  %66 = load ptr, ptr %cpu.addr, align 8
  call void @cpu_loop_exit_noexc(ptr noundef %66) #8
  unreachable

if.else55:                                        ; preds = %land.lhs.true, %for.body
  %67 = load ptr, ptr %wp, align 8
  %flags56 = getelementptr inbounds %struct.CPUWatchpoint, ptr %67, i32 0, i32 4
  %68 = load i32, ptr %flags56, align 4
  %and57 = and i32 %68, -193
  store i32 %and57, ptr %flags56, align 4
  br label %if.end58

if.end58:                                         ; preds = %if.else55
  br label %for.inc

for.inc:                                          ; preds = %if.end58, %if.then42
  %69 = load ptr, ptr %wp, align 8
  %entry59 = getelementptr inbounds %struct.CPUWatchpoint, ptr %69, i32 0, i32 5
  %70 = load ptr, ptr %entry59, align 8
  store ptr %70, ptr %wp, align 8
  br label %for.cond, !llvm.loop !9

for.end:                                          ; preds = %if.end26, %for.cond, %if.then2
  ret void
}