; Function Attrs: nounwind sspstrong uwtable
define dso_local void @cpu_check_watchpoint(ptr noundef %cpu, i64 noundef %addr, i64 noundef %len, i32 %attrs.coerce, i32 noundef %flags, i64 noundef %ra) local_unnamed_addr #0 {
entry:
  %call.i = tail call ptr @object_get_class(ptr noundef %cpu) #8
  %call1.i = tail call ptr @object_class_dynamic_cast_assert(ptr noundef %call.i, ptr noundef nonnull @.str.4, ptr noundef nonnull @.str.5, i32 noundef 64, ptr noundef nonnull @__func__.CPU_GET_CLASS) #8
  %0 = load i8, ptr @tcg_allowed, align 1
  %tobool = trunc i8 %0 to i1
  br i1 %tobool, label %if.end, label %if.else

if.else:                                          ; preds = %entry
  tail call void @__assert_fail(ptr noundef nonnull @.str.1, ptr noundef nonnull @.str.2, i32 noundef 151, ptr noundef nonnull @__PRETTY_FUNCTION__.cpu_check_watchpoint) #10
  unreachable

if.end:                                           ; preds = %entry
  %watchpoint_hit = getelementptr inbounds nuw i8, ptr %cpu, i64 616
  %1 = load ptr, ptr %watchpoint_hit, align 8
  %tobool1.not = icmp eq ptr %1, null
  br i1 %tobool1.not, label %if.end3, label %if.then2

if.then2:                                         ; preds = %if.end
  tail call void @qemu_mutex_lock_iothread_impl(ptr noundef nonnull @.str.2, i32 noundef 158) #8
  tail call void @cpu_interrupt(ptr noundef nonnull %cpu, i32 noundef 128) #8
  tail call void @qemu_mutex_unlock_iothread() #8
  br label %for.end

if.end3:                                          ; preds = %if.end
  %tcg_ops = getelementptr inbounds nuw i8, ptr %call1.i, i64 328
  %2 = load ptr, ptr %tcg_ops, align 8
  %adjust_watchpoint_address = getelementptr inbounds nuw i8, ptr %2, i64 88
  %3 = load ptr, ptr %adjust_watchpoint_address, align 8
  %tobool4.not = icmp eq ptr %3, null
  br i1 %tobool4.not, label %if.end9, label %if.then5

if.then5:                                         ; preds = %if.end3
  %conv = trunc i64 %len to i32
  %call8 = tail call i64 %3(ptr noundef nonnull %cpu, i64 noundef %addr, i32 noundef %conv) #8
  br label %if.end9

if.end9:                                          ; preds = %if.then5, %if.end3
  %addr.addr.0 = phi i64 [ %call8, %if.then5 ], [ %addr, %if.end3 ]
  %cmp = icmp ult i32 %flags, 4
  br i1 %cmp, label %if.end13, label %if.else12

if.else12:                                        ; preds = %if.end9
  tail call void @__assert_fail(ptr noundef nonnull @.str.3, ptr noundef nonnull @.str.2, i32 noundef 169, ptr noundef nonnull @__PRETTY_FUNCTION__.cpu_check_watchpoint) #10
  unreachable

if.end13:                                         ; preds = %if.end9
  %watchpoints = getelementptr inbounds nuw i8, ptr %cpu, i64 600
  %wp.046 = load ptr, ptr %watchpoints, align 8
  %tobool14.not47 = icmp eq ptr %wp.046, null
  br i1 %tobool14.not47, label %for.end, label %for.body.lr.ph

for.body.lr.ph:                                   ; preds = %if.end13
  %add2.i = add i64 %len, -1
  %sub3.i = add i64 %add2.i, %addr.addr.0
  br label %for.body

for.body:                                         ; preds = %for.body.lr.ph, %for.inc
  %wp.048 = phi ptr [ %wp.046, %for.body.lr.ph ], [ %wp.0, %for.inc ]
  %flags15 = getelementptr inbounds nuw i8, ptr %wp.048, i64 28
  %4 = load i32, ptr %flags15, align 4
  %and16 = and i32 %4, %flags
  %tobool17.not = icmp eq i32 %and16, 0
  br i1 %tobool17.not, label %for.inc, label %land.lhs.true

land.lhs.true:                                    ; preds = %for.body
  %wp.0.val = load i64, ptr %wp.048, align 8
  %5 = getelementptr i8, ptr %wp.048, i64 8
  %wp.0.val42 = load i64, ptr %5, align 8
  %add.i = add i64 %wp.0.val, -1
  %sub.i = add i64 %add.i, %wp.0.val42
  %cmp.i = icmp ule i64 %addr.addr.0, %sub.i
  %cmp5.i = icmp ule i64 %wp.0.val, %sub3.i
  %lnot.i = and i1 %cmp.i, %cmp5.i
  br i1 %lnot.i, label %if.then20, label %for.inc

if.then20:                                        ; preds = %land.lhs.true
  %call21 = tail call zeroext i1 @replay_running_debug() #8
  br i1 %call21, label %if.then22, label %if.end27

if.then22:                                        ; preds = %if.then20
  %can_do_io = getelementptr inbounds nuw i8, ptr %cpu, i64 10164
  %6 = load i8, ptr %can_do_io, align 4
  %tobool23 = trunc i8 %6 to i1
  br i1 %tobool23, label %if.end26, label %if.then24

if.then24:                                        ; preds = %if.then22
  %call25 = tail call i32 @curr_cflags(ptr noundef nonnull %cpu) #8
  %or = or i32 %call25, 65537
  %cflags_next_tb = getelementptr inbounds nuw i8, ptr %cpu, i64 212
  store i32 %or, ptr %cflags_next_tb, align 4
  tail call void @cpu_loop_exit_restore(ptr noundef nonnull %cpu, i64 noundef %ra) #10
  unreachable

if.end26:                                         ; preds = %if.then22
  tail call void @replay_breakpoint() #8
  br label %for.end

if.end27:                                         ; preds = %if.then20
  %shl = shl nuw nsw i32 %and16, 6
  %7 = load i32, ptr %flags15, align 4
  %or29 = or i32 %7, %shl
  store i32 %or29, ptr %flags15, align 4
  %8 = load i64, ptr %wp.048, align 8
  %cond = tail call i64 @llvm.umax.i64(i64 %addr.addr.0, i64 %8)
  %hitaddr = getelementptr inbounds nuw i8, ptr %wp.048, i64 16
  store i64 %cond, ptr %hitaddr, align 8
  %hitattrs = getelementptr inbounds nuw i8, ptr %wp.048, i64 24
  store i32 %attrs.coerce, ptr %hitattrs, align 8
  %and33 = and i32 %7, 32
  %tobool34.not = icmp eq i32 %and33, 0
  br i1 %tobool34.not, label %if.end45, label %land.lhs.true35

land.lhs.true35:                                  ; preds = %if.end27
  %9 = load ptr, ptr %tcg_ops, align 8
  %debug_check_watchpoint = getelementptr inbounds nuw i8, ptr %9, i64 96
  %10 = load ptr, ptr %debug_check_watchpoint, align 8
  %tobool37.not = icmp eq ptr %10, null
  br i1 %tobool37.not, label %if.end45, label %land.lhs.true38

land.lhs.true38:                                  ; preds = %land.lhs.true35
  %call41 = tail call zeroext i1 %10(ptr noundef %cpu, ptr noundef nonnull %wp.048) #8
  br i1 %call41, label %if.end45, label %land.lhs.true38.for.inc_crit_edge

land.lhs.true38.for.inc_crit_edge:                ; preds = %land.lhs.true38
  %storemerge.in.pre = load i32, ptr %flags15, align 4
  br label %for.inc

if.end45:                                         ; preds = %land.lhs.true38, %land.lhs.true35, %if.end27
  store ptr %wp.048, ptr %watchpoint_hit, align 8
  tail call void @tb_check_watchpoint(ptr noundef %cpu, i64 noundef %ra) #8
  %11 = load i32, ptr %flags15, align 4
  %and48 = and i32 %11, 4
  %tobool49.not = icmp eq i32 %and48, 0
  br i1 %tobool49.not, label %if.else51, label %if.then50

if.then50:                                        ; preds = %if.end45
  %exception_index = getelementptr inbounds nuw i8, ptr %cpu, i64 728
  store i32 65538, ptr %exception_index, align 8
  tail call void @cpu_loop_exit(ptr noundef nonnull %cpu) #10
  unreachable

if.else51:                                        ; preds = %if.end45
  %call52 = tail call i32 @curr_cflags(ptr noundef nonnull %cpu) #8
  %or53 = or i32 %call52, 65537
  %cflags_next_tb54 = getelementptr inbounds nuw i8, ptr %cpu, i64 212
  store i32 %or53, ptr %cflags_next_tb54, align 4
  tail call void @cpu_loop_exit_noexc(ptr noundef nonnull %cpu) #10
  unreachable

for.inc:                                          ; preds = %land.lhs.true38.for.inc_crit_edge, %for.body, %land.lhs.true
  %storemerge.in = phi i32 [ %storemerge.in.pre, %land.lhs.true38.for.inc_crit_edge ], [ %4, %for.body ], [ %4, %land.lhs.true ]
  %storemerge = and i32 %storemerge.in, -193
  store i32 %storemerge, ptr %flags15, align 4
  %entry59 = getelementptr inbounds nuw i8, ptr %wp.048, i64 32
  %wp.0 = load ptr, ptr %entry59, align 8
  %tobool14.not = icmp eq ptr %wp.0, null
  br i1 %tobool14.not, label %for.end, label %for.body, !llvm.loop !9

for.end:                                          ; preds = %for.inc, %if.end13, %if.end26, %if.then2
  ret void
}